; Function Attrs: nounwind uwtable
define void @Cec_ManPatVerifyPattern(ptr noundef %0, ptr noundef %1, ptr noundef readonly captures(none) %2) local_unnamed_addr #0 {
  tail call void @Gia_ManIncrementTravId(ptr noundef %0) #18
  %4 = getelementptr i8, ptr %2, i64 4
  %.val2025 = load i32, ptr %4, align 4, !tbaa !31
  %5 = icmp sgt i32 %.val2025, 0
  br i1 %5, label %.lr.ph, label %.critedge

.lr.ph:                                           ; preds = %3
  %6 = getelementptr i8, ptr %2, i64 8
  %7 = getelementptr i8, ptr %0, i64 32
  %8 = getelementptr i8, ptr %0, i64 64
  %9 = getelementptr inbounds nuw i8, ptr %0, i64 176
  %10 = getelementptr inbounds nuw i8, ptr %0, i64 616
  %.val22.pre = load ptr, ptr %7, align 8, !tbaa !28
  br label %11

11:                                               ; preds = %.lr.ph, %11
  %.val22 = phi ptr [ %.val22.pre, %.lr.ph ], [ %.val.i, %11 ]
  %indvars.iv = phi i64 [ 0, %.lr.ph ], [ %indvars.iv.next, %11 ]
  %.val21 = load ptr, ptr %6, align 8, !tbaa !33
  %12 = getelementptr inbounds nuw i32, ptr %.val21, i64 %indvars.iv
  %13 = load i32, ptr %12, align 4, !tbaa !29
  %14 = ashr i32 %13, 1
  %.val23 = load ptr, ptr %8, align 8, !tbaa !34
  %15 = getelementptr i8, ptr %.val23, i64 8
  %.val23.val = load ptr, ptr %15, align 8, !tbaa !33
  %16 = sext i32 %14 to i64
  %17 = getelementptr inbounds i32, ptr %.val23.val, i64 %16
  %18 = load i32, ptr %17, align 4, !tbaa !29
  %19 = sext i32 %18 to i64
  %20 = getelementptr inbounds %struct.Gia_Obj_t_, ptr %.val22, i64 %19
  %21 = load i64, ptr %20, align 4
  %22 = and i64 %21, -1073741825
  %23 = lshr i64 %21, 32
  %24 = and i64 %23, 1073741824
  %25 = or disjoint i64 %24, %22
  %storemerge = xor i64 %25, 1073741824
  store i64 %storemerge, ptr %20, align 4
  %26 = load i32, ptr %9, align 8, !tbaa !30
  %27 = load ptr, ptr %10, align 8, !tbaa !3
  %.val.i = load ptr, ptr %7, align 8, !tbaa !28
  %28 = ptrtoint ptr %20 to i64
  %29 = ptrtoint ptr %.val.i to i64
  %30 = sub i64 %28, %29
  %31 = sdiv exact i64 %30, 12
  %sext.i = shl i64 %31, 32
  %32 = ashr exact i64 %sext.i, 30
  %33 = getelementptr inbounds i8, ptr %27, i64 %32
  store i32 %26, ptr %33, align 4, !tbaa !29
  %indvars.iv.next = add nuw nsw i64 %indvars.iv, 1
  %.val20 = load i32, ptr %4, align 4, !tbaa !31
  %34 = sext i32 %.val20 to i64
  %35 = icmp slt i64 %indvars.iv.next, %34
  br i1 %35, label %11, label %.critedge, !llvm.loop !35

.critedge:                                        ; preds = %11, %3
  %36 = load i64, ptr %1, align 4
  %37 = and i64 %36, 536870911
  %38 = sub nsw i64 0, %37
  %39 = getelementptr inbounds %struct.Gia_Obj_t_, ptr %1, i64 %38
  %40 = tail call i32 @Cec_ManPatComputePattern3_rec(ptr noundef %0, ptr noundef nonnull %39)
  %.val = load i64, ptr %1, align 4
  %41 = trunc i64 %.val to i32
  %42 = lshr i32 %41, 29
  %43 = and i32 %42, 1
  %44 = icmp ne i32 %40, 3
  %45 = add nuw nsw i32 %43, 1
  %46 = icmp ne i32 %40, %45
  %.not = select i1 %44, i1 %46, i1 false
  br i1 %.not, label %48, label %47

47:                                               ; preds = %.critedge
  tail call void (i32, ptr, ...) @Abc_Print(i32 poison, ptr noundef nonnull @.str)
  br label %48

48:                                               ; preds = %47, %.critedge
  ret void
}